target datalayout = "e-m:e-p270:32:32-p271:32:32-p272:64:64-i64:64-i128:128-f80:128-n8:16:32:64-S128"
target triple = "x86_64-pc-linux-gnu"

%"class.std::__cxx11::basic_string" = type { %"struct.std::__cxx11::basic_string<char>::_Alloc_hider", i64, %union.anon }
%"struct.std::__cxx11::basic_string<char>::_Alloc_hider" = type { ptr }
%union.anon = type { i64, [8 x i8] }
%struct.ScopedFilePath = type <{ %"class.std::__cxx11::basic_string", i8, [7 x i8] }>

; Function Attrs: mustprogress nounwind uwtable
define dso_local void @_ZN14ScopedFilePathC2EOS_(ptr noundef nonnull align 8 dereferenceable(33) %0, ptr noundef nonnull align 8 dereferenceable(33) %1) unnamed_addr #5 align 2 {
  %3 = alloca ptr, align 8
  %4 = alloca ptr, align 8
  store ptr %0, ptr %3, align 8
  store ptr %1, ptr %4, align 8
  %5 = load ptr, ptr %3, align 8
  %6 = getelementptr inbounds %struct.ScopedFilePath, ptr %5, i32 0, i32 0
  %7 = load ptr, ptr %4, align 8
  %8 = getelementptr inbounds %struct.ScopedFilePath, ptr %7, i32 0, i32 0
  call void @_ZNSt7__cxx1112basic_stringIcSt11char_traitsIcESaIcEEC1EOS4_(ptr noundef nonnull align 8 dereferenceable(32) %6, ptr noundef nonnull align 8 dereferenceable(32) %8) #3
  %9 = getelementptr inbounds %struct.ScopedFilePath, ptr %5, i32 0, i32 1
  %10 = load ptr, ptr %4, align 8
  %11 = getelementptr inbounds %struct.ScopedFilePath, ptr %10, i32 0, i32 1
  %12 = load i8, ptr %11, align 8
  %13 = trunc i8 %12 to i1
  %14 = zext i1 %13 to i8
  store i8 %14, ptr %9, align 8
  %15 = load ptr, ptr %4, align 8
  %16 = getelementptr inbounds %struct.ScopedFilePath, ptr %15, i32 0, i32 1
  store i8 1, ptr %16, align 8
  ret void
}