; Function Attrs: mustprogress nounwind uwtable
define dso_local void @_ZN14ScopedFilePathC2EOS_(ptr noundef nonnull align 8 dereferenceable(33) %0, ptr noundef nonnull align 8 dereferenceable(33) %1) unnamed_addr #4 align 2 {
  tail call void @_ZNSt7__cxx1112basic_stringIcSt11char_traitsIcESaIcEEC1EOS4_(ptr noundef nonnull align 8 dereferenceable(32) %0, ptr noundef nonnull align 8 dereferenceable(32) %1) #23
  %3 = getelementptr inbounds i8, ptr %0, i64 32
  %4 = getelementptr inbounds i8, ptr %1, i64 32
  %5 = load i8, ptr %4, align 8
  %6 = and i8 %5, 1
  store i8 %6, ptr %3, align 8
  store i8 1, ptr %4, align 8
  ret void
}